target datalayout = "e-m:e-p270:32:32-p271:32:32-p272:64:64-i64:64-i128:128-f80:128-n8:16:32:64-S128"
target triple = "x86_64-pc-linux-gnu"

%struct.anon.2 = type { ptr, i32, i32 }
%struct.PgBenchExprList = type { ptr, ptr }
%struct.PgBenchExprLink = type { ptr, ptr }

@.str.25 = private unnamed_addr constant [25 x i8] c"unexpected function name\00", align 1

; Function Attrs: nounwind uwtable
define internal ptr @make_elist(ptr noundef %0, ptr noundef %1) #0 {
  %3 = alloca ptr, align 8
  %4 = alloca ptr, align 8
  %5 = alloca ptr, align 8
  store ptr %0, ptr %3, align 8
  store ptr %1, ptr %4, align 8
  call void @llvm.lifetime.start.p0(i64 8, ptr %5) #7
  %6 = load ptr, ptr %4, align 8
  %7 = icmp eq ptr %6, null
  br i1 %7, label %8, label %14

8:                                                ; preds = %2
  %9 = call ptr @pg_malloc(i64 noundef 16)
  store ptr %9, ptr %4, align 8
  %10 = load ptr, ptr %4, align 8
  %11 = getelementptr inbounds nuw %struct.PgBenchExprList, ptr %10, i32 0, i32 0
  store ptr null, ptr %11, align 8
  %12 = load ptr, ptr %4, align 8
  %13 = getelementptr inbounds nuw %struct.PgBenchExprList, ptr %12, i32 0, i32 1
  store ptr null, ptr %13, align 8
  br label %14

14:                                               ; preds = %8, %2
  %15 = call ptr @pg_malloc(i64 noundef 16)
  store ptr %15, ptr %5, align 8
  %16 = load ptr, ptr %3, align 8
  %17 = load ptr, ptr %5, align 8
  %18 = getelementptr inbounds nuw %struct.PgBenchExprLink, ptr %17, i32 0, i32 0
  store ptr %16, ptr %18, align 8
  %19 = load ptr, ptr %5, align 8
  %20 = getelementptr inbounds nuw %struct.PgBenchExprLink, ptr %19, i32 0, i32 1
  store ptr null, ptr %20, align 8
  %21 = load ptr, ptr %4, align 8
  %22 = getelementptr inbounds nuw %struct.PgBenchExprList, ptr %21, i32 0, i32 0
  %23 = load ptr, ptr %22, align 8
  %24 = icmp eq ptr %23, null
  br i1 %24, label %25, label %29

25:                                               ; preds = %14
  %26 = load ptr, ptr %5, align 8
  %27 = load ptr, ptr %4, align 8
  %28 = getelementptr inbounds nuw %struct.PgBenchExprList, ptr %27, i32 0, i32 0
  store ptr %26, ptr %28, align 8
  br label %35

29:                                               ; preds = %14
  %30 = load ptr, ptr %5, align 8
  %31 = load ptr, ptr %4, align 8
  %32 = getelementptr inbounds nuw %struct.PgBenchExprList, ptr %31, i32 0, i32 1
  %33 = load ptr, ptr %32, align 8
  %34 = getelementptr inbounds nuw %struct.PgBenchExprLink, ptr %33, i32 0, i32 1
  store ptr %30, ptr %34, align 8
  br label %35

35:                                               ; preds = %29, %25
  %36 = load ptr, ptr %5, align 8
  %37 = load ptr, ptr %4, align 8
  %38 = getelementptr inbounds nuw %struct.PgBenchExprList, ptr %37, i32 0, i32 1
  store ptr %36, ptr %38, align 8
  %39 = load ptr, ptr %4, align 8
  call void @llvm.lifetime.end.p0(i64 8, ptr %5) #7
  ret ptr %39
}

; Function Attrs: nounwind uwtable
define internal i32 @find_func(ptr noundef %0, ptr noundef %1) #0 {
  %3 = alloca ptr, align 8
  %4 = alloca ptr, align 8
  %5 = alloca i32, align 4
  store ptr %0, ptr %3, align 8
  store ptr %1, ptr %4, align 8
  call void @llvm.lifetime.start.p0(i64 4, ptr %5) #7
  store i32 0, ptr %5, align 4
  br label %6

6:                                                ; preds = %24, %2
  %7 = load i32, ptr %5, align 4
  %8 = sext i32 %7 to i64
  %9 = getelementptr inbounds [40 x %struct.anon.2], ptr @PGBENCH_FUNCTIONS, i64 0, i64 %8
  %10 = getelementptr inbounds nuw %struct.anon.2, ptr %9, i32 0, i32 0
  %11 = load ptr, ptr %10, align 16
  %12 = icmp ne ptr %11, null
  br i1 %12, label %13, label %27

13:                                               ; preds = %6
  %14 = load ptr, ptr %4, align 8
  %15 = load i32, ptr %5, align 4
  %16 = sext i32 %15 to i64
  %17 = getelementptr inbounds [40 x %struct.anon.2], ptr @PGBENCH_FUNCTIONS, i64 0, i64 %16
  %18 = getelementptr inbounds nuw %struct.anon.2, ptr %17, i32 0, i32 0
  %19 = load ptr, ptr %18, align 16
  %20 = call i32 @pg_strcasecmp(ptr noundef %14, ptr noundef %19)
  %21 = icmp eq i32 %20, 0
  br i1 %21, label %22, label %24

22:                                               ; preds = %13
  %23 = load i32, ptr %5, align 4
  call void @llvm.lifetime.end.p0(i64 4, ptr %5) #7
  ret i32 %23

24:                                               ; preds = %13
  %25 = load i32, ptr %5, align 4
  %26 = add i32 %25, 1
  store i32 %26, ptr %5, align 4
  br label %6, !llvm.loop !8

27:                                               ; preds = %6
  %28 = load ptr, ptr %3, align 8
  %29 = load ptr, ptr %4, align 8
  call void @expr_yyerror_more(ptr noundef %28, ptr noundef @.str.25, ptr noundef %29) #9
  unreachable
}

; Function Attrs: nounwind uwtable
define internal ptr @make_op(ptr noundef %0, ptr noundef %1, ptr noundef %2, ptr noundef %3) #0 {
  %5 = alloca ptr, align 8
  %6 = alloca ptr, align 8
  %7 = alloca ptr, align 8
  %8 = alloca ptr, align 8
  store ptr %0, ptr %5, align 8
  store ptr %1, ptr %6, align 8
  store ptr %2, ptr %7, align 8
  store ptr %3, ptr %8, align 8
  %9 = load ptr, ptr %5, align 8
  %10 = load ptr, ptr %5, align 8
  %11 = load ptr, ptr %6, align 8
  %12 = call i32 @find_func(ptr noundef %10, ptr noundef %11)
  %13 = load ptr, ptr %8, align 8
  %14 = load ptr, ptr %7, align 8
  %15 = call ptr @make_elist(ptr noundef %14, ptr noundef null)
  %16 = call ptr @make_elist(ptr noundef %13, ptr noundef %15)
  %17 = call ptr @make_func(ptr noundef %9, i32 noundef %12, ptr noundef %16)
  ret ptr %17
}