; Function Attrs: nounwind uwtable
define internal fastcc ptr @make_op(ptr noundef %0, ptr noundef %1, ptr noundef %2, ptr noundef %3) unnamed_addr #0 {
  br label %5

5:                                                ; preds = %9, %4
  %indvars.iv.i = phi i64 [ 0, %4 ], [ %indvars.iv.next.i, %9 ]
  %6 = phi ptr [ @.str.3, %4 ], [ %11, %9 ]
  %7 = tail call i32 @pg_strcasecmp(ptr noundef %1, ptr noundef nonnull %6) #9
  %8 = icmp eq i32 %7, 0
  br i1 %8, label %find_func.exit, label %9

9:                                                ; preds = %5
  %indvars.iv.next.i = add nuw nsw i64 %indvars.iv.i, 1
  %10 = getelementptr inbounds nuw [40 x %struct.anon.2], ptr @PGBENCH_FUNCTIONS, i64 0, i64 %indvars.iv.next.i
  %11 = load ptr, ptr %10, align 16
  %exitcond.i = icmp eq i64 %indvars.iv.next.i, 39
  br i1 %exitcond.i, label %12, label %5, !llvm.loop !4

12:                                               ; preds = %9
  tail call void @expr_yyerror_more(ptr noundef %0, ptr noundef nonnull @.str.25, ptr noundef %1) #11
  unreachable

find_func.exit:                                   ; preds = %5
  %13 = tail call ptr @pg_malloc(i64 noundef 16) #9
  tail call void @llvm.memset.p0.i64(ptr noundef nonnull align 8 dereferenceable(16) %13, i8 0, i64 16, i1 false)
  %14 = tail call ptr @pg_malloc(i64 noundef 16) #9
  store ptr %2, ptr %14, align 8
  %15 = getelementptr inbounds nuw i8, ptr %14, i64 8
  store ptr null, ptr %15, align 8
  %16 = load ptr, ptr %13, align 8
  %17 = icmp eq ptr %16, null
  br i1 %17, label %18, label %19

18:                                               ; preds = %find_func.exit
  store ptr %14, ptr %13, align 8
  br label %23

19:                                               ; preds = %find_func.exit
  %20 = getelementptr inbounds nuw i8, ptr %13, i64 8
  %21 = load ptr, ptr %20, align 8
  %22 = getelementptr inbounds nuw i8, ptr %21, i64 8
  store ptr %14, ptr %22, align 8
  br label %23

23:                                               ; preds = %19, %18
  %24 = getelementptr inbounds nuw i8, ptr %13, i64 8
  store ptr %14, ptr %24, align 8
  %25 = tail call ptr @pg_malloc(i64 noundef 16) #9
  store ptr %3, ptr %25, align 8
  %26 = getelementptr inbounds nuw i8, ptr %25, i64 8
  store ptr null, ptr %26, align 8
  %27 = load ptr, ptr %13, align 8
  %28 = icmp eq ptr %27, null
  br i1 %28, label %29, label %30

29:                                               ; preds = %23
  store ptr %25, ptr %13, align 8
  br label %make_elist.exit5

30:                                               ; preds = %23
  %31 = load ptr, ptr %24, align 8
  %32 = getelementptr inbounds nuw i8, ptr %31, i64 8
  store ptr %25, ptr %32, align 8
  br label %make_elist.exit5

make_elist.exit5:                                 ; preds = %29, %30
  %33 = trunc nuw nsw i64 %indvars.iv.i to i32
  store ptr %25, ptr %24, align 8
  %34 = tail call fastcc ptr @make_func(ptr noundef %0, i32 noundef %33, ptr noundef nonnull %13)
  ret ptr %34
}